; Function Attrs: nounwind uwtable
define dso_local range(i64 0, 2) i64 @has_type_privilege_id_id(ptr noundef captures(none) %0) local_unnamed_addr #0 {
  %2 = alloca i8, align 1
  %3 = getelementptr inbounds nuw i8, ptr %0, i64 32
  %4 = load i64, ptr %3, align 8
  %5 = trunc i64 %4 to i32
  %6 = getelementptr inbounds nuw i8, ptr %0, i64 48
  %7 = load i64, ptr %6, align 8
  %8 = trunc i64 %7 to i32
  %9 = getelementptr inbounds nuw i8, ptr %0, i64 64
  %10 = load i64, ptr %9, align 8
  %11 = inttoptr i64 %10 to ptr
  %12 = tail call ptr @pg_detoast_datum_packed(ptr noundef %11) #14
  call void @llvm.lifetime.start.p0(i64 1, ptr nonnull %2) #14
  store i8 0, ptr %2, align 1
  %13 = tail call fastcc i64 @convert_any_priv_string(ptr noundef %12, ptr noundef nonnull @convert_type_priv_string.type_priv_map)
  %14 = call i32 @object_aclcheck_ext(i32 noundef 1247, i32 noundef %8, i32 noundef %5, i64 noundef %13, ptr noundef nonnull %2) #14
  %15 = load i8, ptr %2, align 1, !range !27, !noundef !28
  %16 = trunc nuw i8 %15 to i1
  br i1 %16, label %17, label %19

17:                                               ; preds = %1
  %18 = getelementptr inbounds nuw i8, ptr %0, i64 28
  store i8 1, ptr %18, align 4
  br label %22

19:                                               ; preds = %1
  %20 = icmp eq i32 %14, 0
  %21 = zext i1 %20 to i64
  br label %22

22:                                               ; preds = %19, %17
  %.0 = phi i64 [ 0, %17 ], [ %21, %19 ]
  call void @llvm.lifetime.end.p0(i64 1, ptr nonnull %2) #14
  ret i64 %.0
}